; Function Attrs: mustprogress nofree norecurse nosync nounwind willreturn memory(argmem: read) uwtable
define dso_local noundef zeroext i1 @_ZN4Luau17ApplyTypeFunction14ignoreChildrenEPKNS_4TypeE(ptr nonnull readnone align 8 captures(none) %0, ptr noundef readonly %1) unnamed_addr #4 align 2 {
  %.not.i.i = icmp eq ptr %1, null
  br i1 %.not.i.i, label %_ZN4Luau3getINS_11GenericTypeEEEPKT_PKNS_4TypeE.exit, label %3

3:                                                ; preds = %2
  %4 = load i32, ptr %1, align 8, !tbaa !27
  %5 = and i32 %4, -9
  %spec.select = icmp eq i32 %5, 3
  br label %_ZN4Luau3getINS_11GenericTypeEEEPKT_PKNS_4TypeE.exit

_ZN4Luau3getINS_11GenericTypeEEEPKT_PKNS_4TypeE.exit: ; preds = %3, %2
  %.0 = phi i1 [ false, %2 ], [ %spec.select, %3 ]
  ret i1 %.0
}